; Function Attrs: nounwind uwtable
define hidden void @png_set_unknown_chunks(ptr noalias noundef %0, ptr noalias noundef %1, ptr noundef readonly %2, i32 noundef %3) local_unnamed_addr #2 {
  %5 = icmp eq ptr %0, null
  %6 = icmp eq ptr %1, null
  %or.cond = or i1 %5, %6
  %7 = icmp slt i32 %3, 1
  %or.cond3 = or i1 %or.cond, %7
  %8 = icmp eq ptr %2, null
  %or.cond5 = or i1 %8, %or.cond3
  br i1 %or.cond5, label %.loopexit, label %9

9:                                                ; preds = %4
  %10 = getelementptr inbounds i8, ptr %1, i64 288
  %11 = load ptr, ptr %10, align 8
  %12 = getelementptr inbounds i8, ptr %1, i64 296
  %13 = load i32, ptr %12, align 8
  %14 = tail call noalias ptr @png_realloc_array(ptr noundef nonnull %0, ptr noundef %11, i32 noundef %13, i32 noundef %3, i64 noundef 32) #12
  %15 = icmp eq ptr %14, null
  br i1 %15, label %16, label %.lr.ph

16:                                               ; preds = %9
  tail call void @png_chunk_report(ptr noundef nonnull %0, ptr noundef nonnull @.str.41, i32 noundef 1) #12
  br label %.loopexit

.lr.ph:                                           ; preds = %9
  %17 = load ptr, ptr %10, align 8
  tail call void @png_free(ptr noundef nonnull %0, ptr noundef %17) #12
  store ptr %14, ptr %10, align 8
  %18 = getelementptr inbounds i8, ptr %1, i64 284
  %19 = load i32, ptr %18, align 4
  %20 = or i32 %19, 512
  store i32 %20, ptr %18, align 4
  %21 = load i32, ptr %12, align 8
  %22 = sext i32 %21 to i64
  %23 = getelementptr inbounds %struct.png_unknown_chunk_t, ptr %14, i64 %22
  %24 = getelementptr inbounds i8, ptr %0, i64 292
  br label %25

25:                                               ; preds = %.lr.ph, %64
  %.056 = phi ptr [ %23, %.lr.ph ], [ %.1, %64 ]
  %.04555 = phi i32 [ %3, %.lr.ph ], [ %65, %64 ]
  %.04654 = phi ptr [ %2, %.lr.ph ], [ %66, %64 ]
  tail call void @llvm.memcpy.p0.p0.i64(ptr noundef nonnull align 8 dereferenceable(5) %.056, ptr noundef nonnull align 8 dereferenceable(5) %.04654, i64 5, i1 false)
  %26 = getelementptr inbounds i8, ptr %.056, i64 4
  store i8 0, ptr %26, align 4
  %27 = getelementptr inbounds i8, ptr %.04654, i64 24
  %28 = load i8, ptr %27, align 8
  %29 = and i8 %28, 11
  %30 = zext nneg i8 %29 to i32
  %31 = icmp eq i8 %29, 0
  br i1 %31, label %32, label %.preheader.i.preheader

.preheader.i.preheader:                           ; preds = %36, %25
  %.1.i.ph = phi i32 [ %30, %25 ], [ %38, %36 ]
  br label %.preheader.i

32:                                               ; preds = %25
  %33 = load i32, ptr %24, align 4, !alias.scope !24
  %34 = and i32 %33, 32768
  %35 = icmp eq i32 %34, 0
  br i1 %35, label %36, label %.thread.i

36:                                               ; preds = %32
  tail call void @png_app_warning(ptr noundef nonnull %0, ptr noundef nonnull @.str.50) #12
  %37 = load i32, ptr %24, align 4, !alias.scope !24
  %38 = and i32 %37, 11
  %39 = icmp eq i32 %38, 0
  br i1 %39, label %.thread.i, label %.preheader.i.preheader

.thread.i:                                        ; preds = %36, %32
  tail call void @png_error(ptr noundef nonnull %0, ptr noundef nonnull @.str.51) #14
  unreachable

.preheader.i:                                     ; preds = %.preheader.i.preheader, %.preheader.i
  %.1.i = phi i32 [ %42, %.preheader.i ], [ %.1.i.ph, %.preheader.i.preheader ]
  %40 = sub nsw i32 0, %.1.i
  %41 = and i32 %.1.i, %40
  %.not.i = icmp eq i32 %.1.i, %41
  %42 = xor i32 %41, %.1.i
  br i1 %.not.i, label %check_location.exit, label %.preheader.i, !llvm.loop !27

check_location.exit:                              ; preds = %.preheader.i
  %43 = trunc nuw nsw i32 %.1.i to i8
  %44 = getelementptr inbounds i8, ptr %.056, i64 24
  store i8 %43, ptr %44, align 8
  %45 = getelementptr inbounds i8, ptr %.04654, i64 16
  %46 = load i64, ptr %45, align 8
  %47 = icmp eq i64 %46, 0
  br i1 %47, label %48, label %50

48:                                               ; preds = %check_location.exit
  %49 = getelementptr inbounds i8, ptr %.056, i64 8
  tail call void @llvm.memset.p0.i64(ptr noundef nonnull align 8 dereferenceable(16) %49, i8 0, i64 16, i1 false)
  br label %60

50:                                               ; preds = %check_location.exit
  %51 = tail call noalias ptr @png_malloc_base(ptr noundef %0, i64 noundef %46) #12
  %52 = getelementptr inbounds i8, ptr %.056, i64 8
  store ptr %51, ptr %52, align 8
  %53 = icmp eq ptr %51, null
  br i1 %53, label %54, label %55

54:                                               ; preds = %50
  tail call void @png_chunk_report(ptr noundef %0, ptr noundef nonnull @.str.42, i32 noundef 1) #12
  br label %64

55:                                               ; preds = %50
  %56 = getelementptr inbounds i8, ptr %.04654, i64 8
  %57 = load ptr, ptr %56, align 8
  %58 = load i64, ptr %45, align 8
  tail call void @llvm.memcpy.p0.p0.i64(ptr nonnull align 1 %51, ptr align 1 %57, i64 %58, i1 false)
  %59 = getelementptr inbounds i8, ptr %.056, i64 16
  store i64 %58, ptr %59, align 8
  br label %60

60:                                               ; preds = %55, %48
  %61 = getelementptr inbounds i8, ptr %.056, i64 32
  %62 = load i32, ptr %12, align 8
  %63 = add nsw i32 %62, 1
  store i32 %63, ptr %12, align 8
  br label %64

64:                                               ; preds = %60, %54
  %.1 = phi ptr [ %61, %60 ], [ %.056, %54 ]
  %65 = add nsw i32 %.04555, -1
  %66 = getelementptr inbounds i8, ptr %.04654, i64 32
  %67 = icmp sgt i32 %.04555, 1
  br i1 %67, label %25, label %.loopexit, !llvm.loop !28

.loopexit:                                        ; preds = %64, %4, %16
  ret void
}